	.file	"main.c"
	.text
.Ltext0:
	.file 0 "/home/astaroth/Labs/PWN/UserMode/FormatString" "main.c"
	.section	.rodata
.LC0:
	.string	""
	.section	.data.rel.local,"aw"
	.align 8
	.type	fmt_str, @object
	.size	fmt_str, 8
fmt_str:
	.quad	.LC0
	.section	.rodata
.LC1:
	.string	"get %d - %llx\n"
	.text
	.type	va_args4int, @function
va_args4int:
.LFB6:
	.file 1 "main.c"
	.loc 1 21 1
	.cfi_startproc
	pushq	%rbp
	.cfi_def_cfa_offset 16
	.cfi_offset 6, -16
	movq	%rsp, %rbp
	.cfi_def_cfa_register 6
	subq	$224, %rsp
	movl	%edi, -212(%rbp)
	movq	%rsi, -168(%rbp)
	movq	%rdx, -160(%rbp)
	movq	%rcx, -152(%rbp)
	movq	%r8, -144(%rbp)
	movq	%r9, -136(%rbp)
	testb	%al, %al
	je	.L7
	movaps	%xmm0, -128(%rbp)
	movaps	%xmm1, -112(%rbp)
	movaps	%xmm2, -96(%rbp)
	movaps	%xmm3, -80(%rbp)
	movaps	%xmm4, -64(%rbp)
	movaps	%xmm5, -48(%rbp)
	movaps	%xmm6, -32(%rbp)
	movaps	%xmm7, -16(%rbp)
.L7:
	.loc 1 25 1
	movl	$8, -200(%rbp)
	movl	$48, -196(%rbp)
	leaq	16(%rbp), %rax
	movq	%rax, -192(%rbp)
	leaq	-176(%rbp), %rax
	movq	%rax, -184(%rbp)
	.loc 1 27 8
	jmp	.L3
.L6:
	.loc 1 28 7
	movl	-200(%rbp), %eax
	cmpl	$47, %eax
	ja	.L4
	movq	-184(%rbp), %rax
	movl	-200(%rbp), %edx
	movl	%edx, %edx
	addq	%rdx, %rax
	movl	-200(%rbp), %edx
	addl	$8, %edx
	movl	%edx, -200(%rbp)
	jmp	.L5
.L4:
	movq	-192(%rbp), %rax
	leaq	8(%rax), %rdx
	movq	%rdx, -192(%rbp)
.L5:
	movq	(%rax), %rax
	movq	%rax, -208(%rbp)
	.loc 1 29 3
	movq	-208(%rbp), %rdx
	movl	-212(%rbp), %eax
	movl	%eax, %esi
	leaq	.LC1(%rip), %rax
	movq	%rax, %rdi
	movl	$0, %eax
	call	printf@PLT
	.loc 1 31 6
	subl	$1, -212(%rbp)
.L3:
	.loc 1 27 13
	cmpl	$0, -212(%rbp)
	jg	.L6
	.loc 1 35 1
	nop
	nop
	leave
	.cfi_def_cfa 7, 8
	ret
	.cfi_endproc
.LFE6:
	.size	va_args4int, .-va_args4int
	.section	.rodata
	.align 8
.LC2:
	.string	"0x00 before the effective address"
	.string	""
.LC3:
	.string	"0x0000444444404545"
	.string	""
.LC4:
	.string	"EE@DDD"
	.string	""
	.string	""
	.string	""
	.align 8
.LC5:
	.string	"0x00 at the end of effective address"
	.string	""
.LC6:
	.string	"0x4444444444404500"
	.string	""
.LC7:
	.string	""
	.string	"E@DDDDD"
	.string	""
	.align 8
.LC8:
	.string	"0x00 in the effective address"
	.string	""
.LC9:
	.string	"0x4444444444400045"
	.string	""
.LC10:
	.string	"E"
	.string	"@DDDDD"
	.string	""
	.align 8
.LC11:
	.string	"desc: %s\n\torig: %s\n\tbytes: start-%s-end\n"
	.text
	.type	addr_with_null_analyze, @function
addr_with_null_analyze:
.LFB7:
	.loc 1 38 1
	.cfi_startproc
	pushq	%rbp
	.cfi_def_cfa_offset 16
	.cfi_offset 6, -16
	movq	%rsp, %rbp
	.cfi_def_cfa_register 6
	subq	$96, %rsp
	.loc 1 40 12
	leaq	.LC2(%rip), %rax
	movq	%rax, -80(%rbp)
	leaq	.LC3(%rip), %rax
	movq	%rax, -72(%rbp)
	leaq	.LC4(%rip), %rax
	movq	%rax, -64(%rbp)
	leaq	.LC5(%rip), %rax
	movq	%rax, -56(%rbp)
	leaq	.LC6(%rip), %rax
	movq	%rax, -48(%rbp)
	leaq	.LC7(%rip), %rax
	movq	%rax, -40(%rbp)
	leaq	.LC8(%rip), %rax
	movq	%rax, -32(%rbp)
	leaq	.LC9(%rip), %rax
	movq	%rax, -24(%rbp)
	leaq	.LC10(%rip), %rax
	movq	%rax, -16(%rbp)
	.loc 1 58 6
	movl	$3, -84(%rbp)
	.loc 1 59 8
	jmp	.L9
.L10:
	.loc 1 66 22
	movl	-84(%rbp), %eax
	subl	$1, %eax
	.loc 1 60 3
	movslq	%eax, %rdx
	movq	%rdx, %rax
	addq	%rax, %rax
	addq	%rdx, %rax
	salq	$3, %rax
	addq	%rbp, %rax
	subq	$64, %rax
	movq	(%rax), %rcx
	.loc 1 65 22
	movl	-84(%rbp), %eax
	subl	$1, %eax
	.loc 1 60 3
	movslq	%eax, %rdx
	movq	%rdx, %rax
	addq	%rax, %rax
	addq	%rdx, %rax
	salq	$3, %rax
	addq	%rbp, %rax
	subq	$72, %rax
	movq	(%rax), %rsi
	.loc 1 64 22
	movl	-84(%rbp), %eax
	subl	$1, %eax
	.loc 1 60 3
	movslq	%eax, %rdx
	movq	%rdx, %rax
	addq	%rax, %rax
	addq	%rdx, %rax
	salq	$3, %rax
	addq	%rbp, %rax
	subq	$80, %rax
	movq	(%rax), %rax
	movq	%rsi, %rdx
	movq	%rax, %rsi
	leaq	.LC11(%rip), %rax
	movq	%rax, %rdi
	movl	$0, %eax
	call	printf@PLT
	.loc 1 69 6
	subl	$1, -84(%rbp)
.L9:
	.loc 1 59 13
	cmpl	$0, -84(%rbp)
	jg	.L10
	.loc 1 71 1
	nop
	nop
	leave
	.cfi_def_cfa 7, 8
	ret
	.cfi_endproc
.LFE7:
	.size	addr_with_null_analyze, .-addr_with_null_analyze
	.section	.rodata
.LC12:
	.string	"%s %s"
.LC13:
	.string	"0x"
.LC14:
	.string	"%hhx"
	.text
	.type	bytes_print, @function
bytes_print:
.LFB8:
	.loc 1 74 1
	.cfi_startproc
	pushq	%rbp
	.cfi_def_cfa_offset 16
	.cfi_offset 6, -16
	movq	%rsp, %rbp
	.cfi_def_cfa_register 6
	subq	$112, %rsp
	movq	%rdi, -104(%rbp)
	.loc 1 74 1
	movq	%fs:40, %rax
	movq	%rax, -8(%rbp)
	xorl	%eax, %eax
	.loc 1 75 6
	movl	$0, -84(%rbp)
	.loc 1 78 2
	movq	-104(%rbp), %rdx
	leaq	-80(%rbp), %rax
	movq	%rdx, %r8
	leaq	__func__.1(%rip), %rdx
	movq	%rdx, %rcx
	leaq	.LC12(%rip), %rdx
	movl	$64, %esi
	movq	%rax, %rdi
	movl	$0, %eax
	call	snprintf@PLT
	.loc 1 80 2
	leaq	.LC13(%rip), %rax
	movq	%rax, %rdi
	movl	$0, %eax
	call	printf@PLT
	.loc 1 81 8
	jmp	.L12
.L13:
	.loc 1 82 21
	movl	-84(%rbp), %eax
	cltq
	movzbl	-80(%rbp,%rax), %eax
	.loc 1 82 3
	movsbl	%al, %eax
	movl	%eax, %esi
	leaq	.LC14(%rip), %rax
	movq	%rax, %rdi
	movl	$0, %eax
	call	printf@PLT
	.loc 1 84 4
	addl	$1, -84(%rbp)
.L12:
	.loc 1 81 11
	cmpl	$63, -84(%rbp)
	jle	.L13
	.loc 1 86 2
	movl	$10, %edi
	call	putchar@PLT
	.loc 1 87 1
	nop
	movq	-8(%rbp), %rax
	subq	%fs:40, %rax
	je	.L14
	call	__stack_chk_fail@PLT
.L14:
	leave
	.cfi_def_cfa 7, 8
	ret
	.cfi_endproc
.LFE8:
	.size	bytes_print, .-bytes_print
	.section	.rodata
	.align 8
.LC15:
	.string	"|0x%llx|0x%llx|0x%llx|0x%llx|0x%llx|0x%llx|0x%llx|0x%llx|0x%llx|0x%llx|\n"
	.text
	.type	stack_mem_read, @function
stack_mem_read:
.LFB9:
	.loc 1 90 1
	.cfi_startproc
	pushq	%rbp
	.cfi_def_cfa_offset 16
	.cfi_offset 6, -16
	movq	%rsp, %rbp
	.cfi_def_cfa_register 6
	.loc 1 91 2
	leaq	.LC15(%rip), %rax
	movq	%rax, %rdi
	movl	$0, %eax
	call	printf@PLT
	.loc 1 95 1
	nop
	popq	%rbp
	.cfi_def_cfa 7, 8
	ret
	.cfi_endproc
.LFE9:
	.size	stack_mem_read, .-stack_mem_read
	.section	.rodata
.LC16:
	.string	"welcome, %s!\n"
	.text
	.type	arbitrary_mem_read_wrtie, @function
arbitrary_mem_read_wrtie:
.LFB10:
	.loc 1 98 1
	.cfi_startproc
	pushq	%rbp
	.cfi_def_cfa_offset 16
	.cfi_offset 6, -16
	movq	%rsp, %rbp
	.cfi_def_cfa_register 6
	subq	$96, %rsp
	movq	%rdi, -88(%rbp)
	.loc 1 98 1
	movq	%fs:40, %rax
	movq	%rax, -8(%rbp)
	xorl	%eax, %eax
	.loc 1 101 2
	movq	-88(%rbp), %rdx
	leaq	-80(%rbp), %rax
	movq	%rdx, %rcx
	leaq	.LC16(%rip), %rdx
	movl	$64, %esi
	movq	%rax, %rdi
	movl	$0, %eax
	call	snprintf@PLT
	.loc 1 103 2
	leaq	-80(%rbp), %rax
	movq	%rax, %rdi
	movl	$0, %eax
	call	printf@PLT
	.loc 1 104 1
	nop
	movq	-8(%rbp), %rax
	subq	%fs:40, %rax
	je	.L17
	call	__stack_chk_fail@PLT
.L17:
	leave
	.cfi_def_cfa 7, 8
	ret
	.cfi_endproc
.LFE10:
	.size	arbitrary_mem_read_wrtie, .-arbitrary_mem_read_wrtie
	.type	fmt_str_vuln_test, @function
fmt_str_vuln_test:
.LFB11:
	.loc 1 107 1
	.cfi_startproc
	pushq	%rbp
	.cfi_def_cfa_offset 16
	.cfi_offset 6, -16
	movq	%rsp, %rbp
	.cfi_def_cfa_register 6
	subq	$96, %rsp
	movq	%rdi, -88(%rbp)
	.loc 1 107 1
	movq	%fs:40, %rax
	movq	%rax, -8(%rbp)
	xorl	%eax, %eax
	.loc 1 110 2
	movq	-88(%rbp), %rax
	movq	%rax, %rdi
	call	puts@PLT
	.loc 1 112 2
	leaq	-80(%rbp), %rax
	movl	$64, %edx
	movq	%rax, %rsi
	movl	$0, %edi
	call	read@PLT
	.loc 1 113 2
	leaq	-80(%rbp), %rax
	movq	%rax, %rdi
	call	arbitrary_mem_read_wrtie
	.loc 1 114 1
	nop
	movq	-8(%rbp), %rax
	subq	%fs:40, %rax
	je	.L19
	call	__stack_chk_fail@PLT
.L19:
	leave
	.cfi_def_cfa 7, 8
	ret
	.cfi_endproc
.LFE11:
	.size	fmt_str_vuln_test, .-fmt_str_vuln_test
	.section	.rodata
.LC17:
	.string	"malloc failed"
	.text
	.type	fmt_str_in_heap_test, @function
fmt_str_in_heap_test:
.LFB12:
	.loc 1 117 1
	.cfi_startproc
	pushq	%rbp
	.cfi_def_cfa_offset 16
	.cfi_offset 6, -16
	movq	%rsp, %rbp
	.cfi_def_cfa_register 6
	subq	$16, %rsp
	.loc 1 120 8
	movl	$64, %edi
	call	malloc@PLT
	movq	%rax, -8(%rbp)
	.loc 1 121 5
	cmpq	$0, -8(%rbp)
	jne	.L21
	.loc 1 122 3
	leaq	.LC17(%rip), %rax
	movq	%rax, %rdi
	call	puts@PLT
.L21:
	.loc 1 125 2
	movq	-8(%rbp), %rax
	movl	$64, %edx
	movq	%rax, %rsi
	movl	$0, %edi
	call	read@PLT
	.loc 1 126 2
	movq	-8(%rbp), %rax
	movq	%rax, %rdi
	movl	$0, %eax
	call	printf@PLT
	.loc 1 127 1
	nop
	leave
	.cfi_def_cfa 7, 8
	ret
	.cfi_endproc
.LFE12:
	.size	fmt_str_in_heap_test, .-fmt_str_in_heap_test
	.section	.rodata
.LC18:
	.string	"/bin/sh"
	.text
	.type	gift_get, @function
gift_get:
.LFB13:
	.loc 1 130 1
	.cfi_startproc
	pushq	%rbp
	.cfi_def_cfa_offset 16
	.cfi_offset 6, -16
	movq	%rsp, %rbp
	.cfi_def_cfa_register 6
	.loc 1 131 2
	leaq	.LC18(%rip), %rax
	movq	%rax, %rdi
	call	system@PLT
	.loc 1 132 1
	nop
	popq	%rbp
	.cfi_def_cfa 7, 8
	ret
	.cfi_endproc
.LFE13:
	.size	gift_get, .-gift_get
	.section	.rodata
	.align 8
.LC19:
	.string	"format string vuln test for read"
	.align 8
.LC20:
	.string	"&argv 0x%llx\nargv 0x%llx\nargv0 0x%llx\n"
	.align 8
.LC21:
	.string	"format string vuln test for write"
.LC22:
	.string	"leave %s\n"
	.text
	.globl	main
	.type	main, @function
main:
.LFB14:
	.loc 1 135 1
	.cfi_startproc
	pushq	%rbp
	.cfi_def_cfa_offset 16
	.cfi_offset 6, -16
	movq	%rsp, %rbp
	.cfi_def_cfa_register 6
	subq	$16, %rsp
	movl	%edi, -4(%rbp)
	movq	%rsi, -16(%rbp)
	.loc 1 136 2
	movl	$57, %r8d
	movl	$99, %ecx
	movl	$10, %edx
	movl	$3, %esi
	movl	$4, %edi
	movl	$0, %eax
	call	va_args4int
	.loc 1 138 5
	cmpl	$2, -4(%rbp)
	jne	.L24
	.loc 1 139 19
	movq	-16(%rbp), %rax
	addq	$8, %rax
	.loc 1 139 3
	movq	(%rax), %rax
	movq	%rax, %rdi
	call	bytes_print
.L24:
	.loc 1 141 2
	call	addr_with_null_analyze
	.loc 1 142 2
	call	stack_mem_read
	.loc 1 144 2
	leaq	.LC19(%rip), %rax
	movq	%rax, %rdi
	call	fmt_str_vuln_test
	.loc 1 150 4
	movq	-16(%rbp), %rax
	.loc 1 145 2
	movq	(%rax), %rdx
	movq	-16(%rbp), %rax
	movq	%rax, %rsi
	leaq	-16(%rbp), %rax
	movq	%rdx, %rcx
	movq	%rsi, %rdx
	movq	%rax, %rsi
	leaq	.LC20(%rip), %rax
	movq	%rax, %rdi
	movl	$0, %eax
	call	printf@PLT
	.loc 1 151 2
	call	fmt_str_in_heap_test
	.loc 1 152 2
	call	fmt_str_in_heap_test
	.loc 1 153 2
	call	fmt_str_in_heap_test
	.loc 1 154 2
	call	fmt_str_in_heap_test
	.loc 1 155 2
	call	fmt_str_in_heap_test
	.loc 1 156 2
	call	fmt_str_in_heap_test
	.loc 1 157 2
	leaq	.LC21(%rip), %rax
	movq	%rax, %rdi
	call	fmt_str_vuln_test
	.loc 1 159 2
	leaq	__func__.0(%rip), %rax
	movq	%rax, %rsi
	leaq	.LC22(%rip), %rax
	movq	%rax, %rdi
	movl	$0, %eax
	call	printf@PLT
	movl	$0, %eax
	.loc 1 160 1
	leave
	.cfi_def_cfa 7, 8
	ret
	.cfi_endproc
.LFE14:
	.size	main, .-main
	.section	.rodata
	.align 8
	.type	__func__.1, @object
	.size	__func__.1, 12
__func__.1:
	.string	"bytes_print"
	.type	__func__.0, @object
	.size	__func__.0, 5
__func__.0:
	.string	"main"
	.text
.Letext0:
	.file 2 "/usr/lib/gcc/x86_64-linux-gnu/12/include/stddef.h"
	.file 3 "/usr/lib/gcc/x86_64-linux-gnu/12/include/stdarg.h"
	.file 4 "<built-in>"
	.file 5 "/usr/include/x86_64-linux-gnu/bits/types.h"
	.file 6 "/usr/include/stdio.h"
	.file 7 "/usr/include/stdlib.h"
	.file 8 "/usr/include/unistd.h"
	.section	.note.GNU-stack,"",@progbits
